target datalayout = "e-m:e-p270:32:32-p271:32:32-p272:64:64-i64:64-i128:128-f80:128-n8:16:32:64-S128"
target triple = "x86_64-pc-linux-gnu"

@.str.2 = private unnamed_addr constant [65 x i8] c"8542D69E4C044F18E8B92435BF6FF7DE457283915C45517D722EDB8B08F1DFC3\00", align 1
@.str.3 = private unnamed_addr constant [65 x i8] c"787968B4FA32C3FD2417842E73BBFEFF2F3C848B6831D7E0EC65228B3937E498\00", align 1
@.str.4 = private unnamed_addr constant [65 x i8] c"63E4C6D3B23B0C849CF84241484BFE48F61D59A5B16BA06E6E12D1DA27C5249A\00", align 1
@.str.5 = private unnamed_addr constant [65 x i8] c"421DEBD61B62EAB6746434EBC3CC315E32220B3BADD50BDC4C4E6C147FEDD43D\00", align 1
@.str.6 = private unnamed_addr constant [65 x i8] c"0680512BCBB42C07D47349D2153B70C4E5D7FDFCBFA36EA1A85841B9E46E09A2\00", align 1
@.str.7 = private unnamed_addr constant [65 x i8] c"8542D69E4C044F18E8B92435BF6FF7DD297720630485628D5AE74EE7C32E79B7\00", align 1
@.str.8 = private unnamed_addr constant [2 x i8] c"1\00", align 1
@.str.9 = private unnamed_addr constant [36 x i8] c"../openssl/test/sm2_internal_test.c\00", align 1
@.str.10 = private unnamed_addr constant [11 x i8] c"test_group\00", align 1
@.str.17 = private unnamed_addr constant [65 x i8] c"fffffffeffffffffffffffffffffffffffffffff00000000ffffffffffffffff\00", align 1
@.str.18 = private unnamed_addr constant [65 x i8] c"fffffffeffffffffffffffffffffffffffffffff00000000fffffffffffffffc\00", align 1
@.str.19 = private unnamed_addr constant [65 x i8] c"28e9fa9e9d9f5e344d5a9e4bcf6509a7f39789f515ab8f92ddbcbd414d940e93\00", align 1
@.str.20 = private unnamed_addr constant [65 x i8] c"32c4ae2c1f1981195f9904466a39c9948fe30bbff2660be1715a4589334c74c7\00", align 1
@.str.21 = private unnamed_addr constant [65 x i8] c"bc3736a2f4f6779c59bdcee36b692153d0a9877cc62a474002df32e52139f0a0\00", align 1
@.str.22 = private unnamed_addr constant [65 x i8] c"fffffffeffffffffffffffffffffffff7203df6b21c6052b53bbf40939d54123\00", align 1
@.str.23 = private unnamed_addr constant [9 x i8] c"gm_group\00", align 1
@.str.24 = private unnamed_addr constant [65 x i8] c"3945208F7B2144B13F36E38AC6D39F95889393692860B51A42FB81EF4DF7C5B8\00", align 1
@.str.25 = private unnamed_addr constant [65 x i8] c"59276E27D506861A16680F3AD9C02DCCEF3CC1FA3CDBE4CE6D54B80DEAC1BC21\00", align 1
@.str.61 = private unnamed_addr constant [19 x i8] c"ALICE123@YAHOO.COM\00", align 1
@.str.62 = private unnamed_addr constant [65 x i8] c"128B2FA8BD433C6C068C8D803DFF79792A519A55171B1B650C23661D15897263\00", align 1
@.str.63 = private unnamed_addr constant [15 x i8] c"message digest\00", align 1
@.str.64 = private unnamed_addr constant [133 x i8] c"006CB28D99385C175C94F94E934817663FC176D925DD72B727260DBAAE1FB2F96F007c47811054c6f99613a578eb8453706ccb96384fe7df5c171671e760bfa8be3a\00", align 1
@.str.65 = private unnamed_addr constant [65 x i8] c"40F1EC59F793D9F49E09DCEF49130D4194F79FB1EED2CAA55BACDB49C4E755D1\00", align 1
@.str.66 = private unnamed_addr constant [65 x i8] c"6FC6DAC32C5D5CF10C77DFB20F7C2EB667A457872FB09EC56327A67EC7DEEBE7\00", align 1
@.str.68 = private unnamed_addr constant [17 x i8] c"1234567812345678\00", align 1
@.str.69 = private unnamed_addr constant [65 x i8] c"F5A03B0648D2C4630EEAC513E1BB81A15944DA3827D5B74143AC7EACEEE720B3\00", align 1
@.str.70 = private unnamed_addr constant [65 x i8] c"B1B6AA29DF212FD8763182BC0D421CA1BB9038FD1F7F42D4840B69C485BBC1AA\00", align 1

; Function Attrs: nounwind uwtable
define internal i32 @sm2_sig_test() #0 {
  %1 = alloca i32, align 4
  %2 = alloca ptr, align 8
  %3 = alloca ptr, align 8
  call void @llvm.lifetime.start.p0(i64 4, ptr %1) #4
  store i32 0, ptr %1, align 4, !tbaa !9
  call void @llvm.lifetime.start.p0(i64 8, ptr %2) #4
  store ptr null, ptr %2, align 8, !tbaa !11
  call void @llvm.lifetime.start.p0(i64 8, ptr %3) #4
  %4 = call ptr @create_EC_group(ptr noundef @.str.2, ptr noundef @.str.3, ptr noundef @.str.4, ptr noundef @.str.5, ptr noundef @.str.6, ptr noundef @.str.7, ptr noundef @.str.8)
  store ptr %4, ptr %3, align 8, !tbaa !11
  %5 = load ptr, ptr %3, align 8, !tbaa !11
  %6 = call i32 @test_ptr(ptr noundef @.str.9, i32 noundef 388, ptr noundef @.str.10, ptr noundef %5)
  %7 = icmp ne i32 %6, 0
  br i1 %7, label %9, label %8

8:                                                ; preds = %0
  br label %40

9:                                                ; preds = %0
  %10 = load ptr, ptr %3, align 8, !tbaa !11
  %11 = call i32 @test_sm2_sign(ptr noundef %10, ptr noundef @.str.61, ptr noundef @.str.62, ptr noundef @.str.63, ptr noundef @.str.64, ptr noundef @.str.65, ptr noundef @.str.66, i32 noundef 0)
  %12 = icmp ne i32 %11, 0
  %13 = zext i1 %12 to i32
  %14 = call i32 @test_true(ptr noundef @.str.9, i32 noundef 399, ptr noundef @.str.60, i32 noundef %13)
  %15 = icmp ne i32 %14, 0
  br i1 %15, label %17, label %16

16:                                               ; preds = %9
  br label %40

17:                                               ; preds = %9
  %18 = call ptr @create_EC_group(ptr noundef @.str.17, ptr noundef @.str.18, ptr noundef @.str.19, ptr noundef @.str.20, ptr noundef @.str.21, ptr noundef @.str.22, ptr noundef @.str.8)
  store ptr %18, ptr %2, align 8, !tbaa !11
  %19 = load ptr, ptr %2, align 8, !tbaa !11
  %20 = call i32 @test_ptr(ptr noundef @.str.9, i32 noundef 412, ptr noundef @.str.23, ptr noundef %19)
  %21 = icmp ne i32 %20, 0
  br i1 %21, label %23, label %22

22:                                               ; preds = %17
  br label %40

23:                                               ; preds = %17
  %24 = load ptr, ptr %2, align 8, !tbaa !11
  %25 = call i32 @test_sm2_sign(ptr noundef %24, ptr noundef @.str.68, ptr noundef @.str.24, ptr noundef @.str.63, ptr noundef @.str.25, ptr noundef @.str.69, ptr noundef @.str.70, i32 noundef 0)
  %26 = icmp ne i32 %25, 0
  %27 = zext i1 %26 to i32
  %28 = call i32 @test_true(ptr noundef @.str.9, i32 noundef 430, ptr noundef @.str.67, i32 noundef %27)
  %29 = icmp ne i32 %28, 0
  br i1 %29, label %31, label %30

30:                                               ; preds = %23
  br label %40

31:                                               ; preds = %23
  %32 = load ptr, ptr %2, align 8, !tbaa !11
  %33 = call i32 @test_sm2_sign(ptr noundef %32, ptr noundef @.str.68, ptr noundef @.str.24, ptr noundef @.str.63, ptr noundef @.str.25, ptr noundef @.str.69, ptr noundef @.str.70, i32 noundef 1)
  %34 = icmp ne i32 %33, 0
  %35 = zext i1 %34 to i32
  %36 = call i32 @test_false(ptr noundef @.str.9, i32 noundef 450, ptr noundef @.str.71, i32 noundef %35)
  %37 = icmp ne i32 %36, 0
  br i1 %37, label %39, label %38

38:                                               ; preds = %31
  br label %40

39:                                               ; preds = %31
  store i32 1, ptr %1, align 4, !tbaa !9
  br label %40

40:                                               ; preds = %39, %38, %30, %22, %16, %8
  %41 = load ptr, ptr %3, align 8, !tbaa !11
  call void @EC_GROUP_free(ptr noundef %41)
  %42 = load ptr, ptr %2, align 8, !tbaa !11
  call void @EC_GROUP_free(ptr noundef %42)
  %43 = load i32, ptr %1, align 4, !tbaa !9
  call void @llvm.lifetime.end.p0(i64 8, ptr %3) #4
  call void @llvm.lifetime.end.p0(i64 8, ptr %2) #4
  call void @llvm.lifetime.end.p0(i64 4, ptr %1) #4
  ret i32 %43
}