; Function Attrs: nounwind uwtable
define internal range(i32 0, 2) i32 @sm2_sig_test() #0 {
  %1 = tail call fastcc ptr @create_EC_group(ptr noundef nonnull @.str.2, ptr noundef nonnull @.str.3, ptr noundef nonnull @.str.4, ptr noundef nonnull @.str.5, ptr noundef nonnull @.str.6, ptr noundef nonnull @.str.7)
  %2 = tail call i32 @test_ptr(ptr noundef nonnull @.str.9, i32 noundef 388, ptr noundef nonnull @.str.10, ptr noundef %1) #4
  %.not = icmp eq i32 %2, 0
  br i1 %.not, label %21, label %3

3:                                                ; preds = %0
  %4 = tail call fastcc i32 @test_sm2_sign(ptr noundef %1, ptr noundef nonnull @.str.61, ptr noundef nonnull @.str.62, ptr noundef nonnull @.str.64, ptr noundef nonnull @.str.65, ptr noundef nonnull @.str.66, i32 noundef 0)
  %5 = icmp ne i32 %4, 0
  %6 = zext i1 %5 to i32
  %7 = tail call i32 @test_true(ptr noundef nonnull @.str.9, i32 noundef 399, ptr noundef nonnull @.str.60, i32 noundef %6) #4
  %.not8 = icmp eq i32 %7, 0
  br i1 %.not8, label %21, label %8

8:                                                ; preds = %3
  %9 = tail call fastcc ptr @create_EC_group(ptr noundef nonnull @.str.17, ptr noundef nonnull @.str.18, ptr noundef nonnull @.str.19, ptr noundef nonnull @.str.20, ptr noundef nonnull @.str.21, ptr noundef nonnull @.str.22)
  %10 = tail call i32 @test_ptr(ptr noundef nonnull @.str.9, i32 noundef 412, ptr noundef nonnull @.str.23, ptr noundef %9) #4
  %.not9 = icmp eq i32 %10, 0
  br i1 %.not9, label %21, label %11

11:                                               ; preds = %8
  %12 = tail call fastcc i32 @test_sm2_sign(ptr noundef %9, ptr noundef nonnull @.str.68, ptr noundef nonnull @.str.24, ptr noundef nonnull @.str.25, ptr noundef nonnull @.str.69, ptr noundef nonnull @.str.70, i32 noundef 0)
  %13 = icmp ne i32 %12, 0
  %14 = zext i1 %13 to i32
  %15 = tail call i32 @test_true(ptr noundef nonnull @.str.9, i32 noundef 430, ptr noundef nonnull @.str.67, i32 noundef %14) #4
  %.not10 = icmp eq i32 %15, 0
  br i1 %.not10, label %21, label %16

16:                                               ; preds = %11
  %17 = tail call fastcc i32 @test_sm2_sign(ptr noundef %9, ptr noundef nonnull @.str.68, ptr noundef nonnull @.str.24, ptr noundef nonnull @.str.25, ptr noundef nonnull @.str.69, ptr noundef nonnull @.str.70, i32 noundef 1)
  %18 = icmp ne i32 %17, 0
  %19 = zext i1 %18 to i32
  %20 = tail call i32 @test_false(ptr noundef nonnull @.str.9, i32 noundef 450, ptr noundef nonnull @.str.71, i32 noundef %19) #4
  %.not11 = icmp ne i32 %20, 0
  %spec.select = zext i1 %.not11 to i32
  br label %21

21:                                               ; preds = %16, %11, %8, %3, %0
  %.07 = phi ptr [ %9, %11 ], [ %9, %8 ], [ null, %3 ], [ null, %0 ], [ %9, %16 ]
  %.0 = phi i32 [ 0, %11 ], [ 0, %8 ], [ 0, %3 ], [ 0, %0 ], [ %spec.select, %16 ]
  tail call void @EC_GROUP_free(ptr noundef %1) #4
  tail call void @EC_GROUP_free(ptr noundef %.07) #4
  ret i32 %.0
}